target datalayout = "e-m:e-p270:32:32-p271:32:32-p272:64:64-i64:64-i128:128-f80:128-n8:16:32:64-S128"
target triple = "x86_64-pc-linux-gnu"

@hf_glusterfs_gfid = internal global i32 0, align 4
@hf_glusterfs_dict = internal global i32 0, align 4

; Function Attrs: null_pointer_is_valid sspstrong uwtable
define internal i32 @glusterfs_rpc_dissect_gfid(ptr noundef %0, ptr noundef %1, i32 noundef %2, i32 noundef %3) #0 {
  %5 = alloca ptr, align 8
  %6 = alloca ptr, align 8
  %7 = alloca i32, align 4
  %8 = alloca i32, align 4
  store ptr %0, ptr %5, align 8
  store ptr %1, ptr %6, align 8
  store i32 %2, ptr %7, align 4
  store i32 %3, ptr %8, align 4
  %9 = load ptr, ptr %5, align 8
  %10 = load i32, ptr %7, align 4
  %11 = load ptr, ptr %6, align 8
  %12 = load i32, ptr %8, align 4
  %13 = call ptr @proto_tree_add_item(ptr noundef %9, i32 noundef %10, ptr noundef %11, i32 noundef %12, i32 noundef 16, i32 noundef 0)
  %14 = load i32, ptr %8, align 4
  %15 = add i32 %14, 16
  store i32 %15, ptr %8, align 4
  %16 = load i32, ptr %8, align 4
  ret i32 %16
}

; Function Attrs: null_pointer_is_valid sspstrong uwtable
define internal i32 @glusterfs_gfs4_0_op_setxattr_call(ptr noundef %0, ptr noundef %1, ptr noundef %2, ptr noundef %3) #0 {
  %5 = alloca ptr, align 8
  %6 = alloca ptr, align 8
  %7 = alloca ptr, align 8
  %8 = alloca ptr, align 8
  %9 = alloca i32, align 4
  store ptr %0, ptr %5, align 8
  store ptr %1, ptr %6, align 8
  store ptr %2, ptr %7, align 8
  store ptr %3, ptr %8, align 8
  call void @llvm.lifetime.start.p0(i64 4, ptr %9) #5
  store i32 0, ptr %9, align 4
  %10 = load ptr, ptr %7, align 8
  %11 = load ptr, ptr %5, align 8
  %12 = load i32, ptr @hf_glusterfs_gfid, align 4
  %13 = load i32, ptr %9, align 4
  %14 = call i32 @glusterfs_rpc_dissect_gfid(ptr noundef %10, ptr noundef %11, i32 noundef %12, i32 noundef %13)
  store i32 %14, ptr %9, align 4
  %15 = load ptr, ptr %7, align 8
  %16 = load ptr, ptr %5, align 8
  %17 = load i32, ptr %9, align 4
  %18 = call i32 @glusterfs_rpc_dissect_flags(ptr noundef %15, ptr noundef %16, i32 noundef %17)
  store i32 %18, ptr %9, align 4
  %19 = load ptr, ptr %7, align 8
  %20 = load ptr, ptr %5, align 8
  %21 = load i32, ptr @hf_glusterfs_dict, align 4
  %22 = load i32, ptr %9, align 4
  %23 = call i32 @gluster_rpc4_0_dissect_dict(ptr noundef %19, ptr noundef %20, i32 noundef %21, i32 noundef %22)
  store i32 %23, ptr %9, align 4
  %24 = load ptr, ptr %7, align 8
  %25 = load ptr, ptr %5, align 8
  %26 = load i32, ptr @hf_glusterfs_dict, align 4
  %27 = load i32, ptr %9, align 4
  %28 = call i32 @gluster_rpc4_0_dissect_dict(ptr noundef %24, ptr noundef %25, i32 noundef %26, i32 noundef %27)
  store i32 %28, ptr %9, align 4
  %29 = load i32, ptr %9, align 4
  call void @llvm.lifetime.end.p0(i64 4, ptr %9) #5
  ret i32 %29
}